target datalayout = "e-m:e-p270:32:32-p271:32:32-p272:64:64-i64:64-i128:128-f80:128-n8:16:32:64-S128"
target triple = "x86_64-pc-linux-gnu"

@.str.14 = private unnamed_addr constant [35 x i8] c"../openssl/test/prov_config_test.c\00", align 1
@.str.15 = private unnamed_addr constant [28 x i8] c"Error parsing test options\0A\00", align 1
@.str.16 = private unnamed_addr constant [34 x i8] c"configfile = test_get_argument(0)\00", align 1
@configfile = internal global ptr null, align 8
@.str.17 = private unnamed_addr constant [41 x i8] c"recurseconfigfile = test_get_argument(1)\00", align 1
@recurseconfigfile = internal global ptr null, align 8
@.str.18 = private unnamed_addr constant [36 x i8] c"pathedconfig = test_get_argument(2)\00", align 1
@pathedconfig = internal global ptr null, align 8
@.str.19 = private unnamed_addr constant [22 x i8] c"test_recursive_config\00", align 1
@.str.20 = private unnamed_addr constant [19 x i8] c"test_double_config\00", align 1
@.str.21 = private unnamed_addr constant [17 x i8] c"test_path_config\00", align 1

; Function Attrs: nounwind uwtable
define dso_local i32 @setup_tests() #0 {
  %1 = alloca i32, align 4
  %2 = call i32 @test_skip_common_options()
  %3 = icmp ne i32 %2, 0
  br i1 %3, label %5, label %4

4:                                                ; preds = %0
  call void (ptr, i32, ptr, ...) @test_error(ptr noundef @.str.14, i32 noundef 123, ptr noundef @.str.15)
  store i32 0, ptr %1, align 4
  br label %21

5:                                                ; preds = %0
  %6 = call ptr @test_get_argument(i64 noundef 0)
  store ptr %6, ptr @configfile, align 8, !tbaa !4
  %7 = call i32 @test_ptr(ptr noundef @.str.14, i32 noundef 127, ptr noundef @.str.16, ptr noundef %6)
  %8 = icmp ne i32 %7, 0
  br i1 %8, label %10, label %9

9:                                                ; preds = %5
  store i32 0, ptr %1, align 4
  br label %21

10:                                               ; preds = %5
  %11 = call ptr @test_get_argument(i64 noundef 1)
  store ptr %11, ptr @recurseconfigfile, align 8, !tbaa !4
  %12 = call i32 @test_ptr(ptr noundef @.str.14, i32 noundef 130, ptr noundef @.str.17, ptr noundef %11)
  %13 = icmp ne i32 %12, 0
  br i1 %13, label %15, label %14

14:                                               ; preds = %10
  store i32 0, ptr %1, align 4
  br label %21

15:                                               ; preds = %10
  %16 = call ptr @test_get_argument(i64 noundef 2)
  store ptr %16, ptr @pathedconfig, align 8, !tbaa !4
  %17 = call i32 @test_ptr(ptr noundef @.str.14, i32 noundef 133, ptr noundef @.str.18, ptr noundef %16)
  %18 = icmp ne i32 %17, 0
  br i1 %18, label %20, label %19

19:                                               ; preds = %15
  store i32 0, ptr %1, align 4
  br label %21

20:                                               ; preds = %15
  call void @add_test(ptr noundef @.str.19, ptr noundef @test_recursive_config)
  call void @add_test(ptr noundef @.str.20, ptr noundef @test_double_config)
  call void @add_test(ptr noundef @.str.21, ptr noundef @test_path_config)
  store i32 1, ptr %1, align 4
  br label %21

21:                                               ; preds = %20, %19, %14, %9, %4
  %22 = load i32, ptr %1, align 4
  ret i32 %22
}